target datalayout = "e-m:e-p270:32:32-p271:32:32-p272:64:64-i64:64-i128:128-f80:128-n8:16:32:64-S128"
target triple = "x86_64-pc-linux-gnu"

%"class.google::protobuf::Map" = type { %"class.google::protobuf::Map<google::protobuf::MapKey, google::protobuf::MapValueRef>::InnerMap" }
%"class.google::protobuf::Map<google::protobuf::MapKey, google::protobuf::MapValueRef>::InnerMap" = type { i64, i64, i64, i64, ptr, %"class.google::protobuf::internal::MapAllocator" }
%"class.google::protobuf::internal::MapAllocator" = type { ptr }
%"class.google::protobuf::Map<google::protobuf::MapKey, google::protobuf::MapValueRef>::const_iterator" = type { %"class.google::protobuf::Map<google::protobuf::MapKey, google::protobuf::MapValueRef>::InnerMap::iterator_base.0" }
%"class.google::protobuf::Map<google::protobuf::MapKey, google::protobuf::MapValueRef>::InnerMap::iterator_base.0" = type { ptr, ptr, i64 }
%"struct.std::pair.27" = type { %"class.google::protobuf::Map<google::protobuf::MapKey, google::protobuf::MapValueRef>::InnerMap::iterator_base.0", i64 }

; Function Attrs: mustprogress nounwind uwtable
define linkonce_odr hidden noundef zeroext i1 @_ZN6google8protobufeqERKNS0_3MapINS0_6MapKeyENS0_11MapValueRefEE8InnerMap13iterator_baseIKNS0_7MapPairIS2_S3_EEEESC_(ptr noundef nonnull align 8 dereferenceable(24) %0, ptr noundef nonnull align 8 dereferenceable(24) %1) #4 comdat {
  %3 = alloca ptr, align 8
  %4 = alloca ptr, align 8
  store ptr %0, ptr %3, align 8, !tbaa !323
  store ptr %1, ptr %4, align 8, !tbaa !323
  %5 = load ptr, ptr %3, align 8, !tbaa !323
  %6 = getelementptr inbounds nuw %"class.google::protobuf::Map<google::protobuf::MapKey, google::protobuf::MapValueRef>::InnerMap::iterator_base.0", ptr %5, i32 0, i32 0
  %7 = load ptr, ptr %6, align 8, !tbaa !325
  %8 = load ptr, ptr %4, align 8, !tbaa !323
  %9 = getelementptr inbounds nuw %"class.google::protobuf::Map<google::protobuf::MapKey, google::protobuf::MapValueRef>::InnerMap::iterator_base.0", ptr %8, i32 0, i32 0
  %10 = load ptr, ptr %9, align 8, !tbaa !325
  %11 = icmp eq ptr %7, %10
  ret i1 %11
}

; Function Attrs: mustprogress nounwind uwtable
define linkonce_odr hidden void @_ZN6google8protobuf3MapINS0_6MapKeyENS0_11MapValueRefEE8InnerMap13iterator_baseIKNS0_7MapPairIS2_S3_EEEC2Ev(ptr noundef nonnull align 8 dereferenceable(24) %0) unnamed_addr #4 comdat align 2 {
  %2 = alloca ptr, align 8
  store ptr %0, ptr %2, align 8, !tbaa !323
  %3 = load ptr, ptr %2, align 8
  %4 = getelementptr inbounds nuw %"class.google::protobuf::Map<google::protobuf::MapKey, google::protobuf::MapValueRef>::InnerMap::iterator_base.0", ptr %3, i32 0, i32 0
  store ptr null, ptr %4, align 8, !tbaa !325
  %5 = getelementptr inbounds nuw %"class.google::protobuf::Map<google::protobuf::MapKey, google::protobuf::MapValueRef>::InnerMap::iterator_base.0", ptr %3, i32 0, i32 1
  store ptr null, ptr %5, align 8, !tbaa !327
  %6 = getelementptr inbounds nuw %"class.google::protobuf::Map<google::protobuf::MapKey, google::protobuf::MapValueRef>::InnerMap::iterator_base.0", ptr %3, i32 0, i32 2
  store i64 0, ptr %6, align 8, !tbaa !328
  ret void
}

; Function Attrs: mustprogress uwtable
define linkonce_odr hidden void @_ZNK6google8protobuf3MapINS0_6MapKeyENS0_11MapValueRefEE8InnerMap10FindHelperIS2_EESt4pairINS5_13iterator_baseIKNS0_7MapPairIS2_S3_EEEEmERKT_(ptr dead_on_unwind noalias writable sret(%"struct.std::pair.27") align 8 %0, ptr noundef nonnull align 8 dereferenceable(48) %1, ptr noundef nonnull align 8 dereferenceable(36) %2) #7 comdat align 2 {
  %4 = alloca ptr, align 8
  %5 = alloca ptr, align 8
  store ptr %1, ptr %4, align 8, !tbaa !97
  store ptr %2, ptr %5, align 8, !tbaa !68
  %6 = load ptr, ptr %4, align 8
  %7 = load ptr, ptr %5, align 8, !tbaa !68
  call void @_ZNK6google8protobuf3MapINS0_6MapKeyENS0_11MapValueRefEE8InnerMap10FindHelperIS2_EESt4pairINS5_13iterator_baseIKNS0_7MapPairIS2_S3_EEEEmERKT_PSt17_Rb_tree_iteratorIS7_IKSt17reference_wrapperIKS2_EPvEE(ptr dead_on_unwind writable sret(%"struct.std::pair.27") align 8 %0, ptr noundef nonnull align 8 dereferenceable(48) %6, ptr noundef nonnull align 8 dereferenceable(36) %7, ptr noundef null)
  ret void
}

; Function Attrs: mustprogress uwtable
define linkonce_odr hidden noundef zeroext i1 @_ZN6google8protobufeqERKNS0_3MapINS0_6MapKeyENS0_11MapValueRefEE14const_iteratorES7_(ptr noundef nonnull align 8 dereferenceable(24) %0, ptr noundef nonnull align 8 dereferenceable(24) %1) #7 comdat {
  %3 = alloca ptr, align 8
  %4 = alloca ptr, align 8
  store ptr %0, ptr %3, align 8, !tbaa !70
  store ptr %1, ptr %4, align 8, !tbaa !70
  %5 = load ptr, ptr %3, align 8, !tbaa !70
  %6 = getelementptr inbounds nuw %"class.google::protobuf::Map<google::protobuf::MapKey, google::protobuf::MapValueRef>::const_iterator", ptr %5, i32 0, i32 0
  %7 = load ptr, ptr %4, align 8, !tbaa !70
  %8 = getelementptr inbounds nuw %"class.google::protobuf::Map<google::protobuf::MapKey, google::protobuf::MapValueRef>::const_iterator", ptr %7, i32 0, i32 0
  %9 = call noundef zeroext i1 @_ZN6google8protobufeqERKNS0_3MapINS0_6MapKeyENS0_11MapValueRefEE8InnerMap13iterator_baseIKNS0_7MapPairIS2_S3_EEEESC_(ptr noundef nonnull align 8 dereferenceable(24) %6, ptr noundef nonnull align 8 dereferenceable(24) %8)
  ret i1 %9
}

; Function Attrs: mustprogress uwtable
define linkonce_odr hidden void @_ZNK6google8protobuf3MapINS0_6MapKeyENS0_11MapValueRefEE8InnerMap3endEv(ptr dead_on_unwind noalias writable sret(%"class.google::protobuf::Map<google::protobuf::MapKey, google::protobuf::MapValueRef>::InnerMap::iterator_base.0") align 8 %0, ptr noundef nonnull align 8 dereferenceable(48) %1) #7 comdat align 2 {
  %3 = alloca ptr, align 8
  store ptr %1, ptr %3, align 8, !tbaa !97
  call void @_ZN6google8protobuf3MapINS0_6MapKeyENS0_11MapValueRefEE8InnerMap13iterator_baseIKNS0_7MapPairIS2_S3_EEEC2Ev(ptr noundef nonnull align 8 dereferenceable(24) %0)
  ret void
}

; Function Attrs: mustprogress nounwind uwtable
define linkonce_odr hidden void @_ZN6google8protobuf3MapINS0_6MapKeyENS0_11MapValueRefEE14const_iteratorC2ERKNS4_8InnerMap13iterator_baseIKNS0_7MapPairIS2_S3_EEEE(ptr noundef nonnull align 8 dereferenceable(24) %0, ptr noundef nonnull align 8 dereferenceable(24) %1) unnamed_addr #4 comdat align 2 {
  %3 = alloca ptr, align 8
  %4 = alloca ptr, align 8
  store ptr %0, ptr %3, align 8, !tbaa !70
  store ptr %1, ptr %4, align 8, !tbaa !323
  %5 = load ptr, ptr %3, align 8
  %6 = getelementptr inbounds nuw %"class.google::protobuf::Map<google::protobuf::MapKey, google::protobuf::MapValueRef>::const_iterator", ptr %5, i32 0, i32 0
  %7 = load ptr, ptr %4, align 8, !tbaa !323
  call void @llvm.memcpy.p0.p0.i64(ptr align 8 %6, ptr align 8 %7, i64 24, i1 false), !tbaa.struct !94
  ret void
}

; Function Attrs: mustprogress uwtable
define linkonce_odr hidden void @_ZNK6google8protobuf3MapINS0_6MapKeyENS0_11MapValueRefEE8InnerMap4findIS2_EENS5_13iterator_baseIKNS0_7MapPairIS2_S3_EEEERKT_(ptr dead_on_unwind noalias writable sret(%"class.google::protobuf::Map<google::protobuf::MapKey, google::protobuf::MapValueRef>::InnerMap::iterator_base.0") align 8 %0, ptr noundef nonnull align 8 dereferenceable(48) %1, ptr noundef nonnull align 8 dereferenceable(36) %2) #7 comdat align 2 {
  %4 = alloca ptr, align 8
  %5 = alloca ptr, align 8
  %6 = alloca %"struct.std::pair.27", align 8
  store ptr %1, ptr %4, align 8, !tbaa !97
  store ptr %2, ptr %5, align 8, !tbaa !68
  %7 = load ptr, ptr %4, align 8
  call void @llvm.lifetime.start.p0(i64 32, ptr %6) #3
  %8 = load ptr, ptr %5, align 8, !tbaa !68
  call void @_ZNK6google8protobuf3MapINS0_6MapKeyENS0_11MapValueRefEE8InnerMap10FindHelperIS2_EESt4pairINS5_13iterator_baseIKNS0_7MapPairIS2_S3_EEEEmERKT_(ptr dead_on_unwind writable sret(%"struct.std::pair.27") align 8 %6, ptr noundef nonnull align 8 dereferenceable(48) %7, ptr noundef nonnull align 8 dereferenceable(36) %8)
  %9 = getelementptr inbounds nuw %"struct.std::pair.27", ptr %6, i32 0, i32 0
  call void @llvm.memcpy.p0.p0.i64(ptr align 8 %0, ptr align 8 %9, i64 24, i1 false), !tbaa.struct !94
  call void @llvm.lifetime.end.p0(i64 32, ptr %6) #3
  ret void
}

; Function Attrs: mustprogress uwtable
define linkonce_odr hidden noundef zeroext i1 @_ZN6google8protobufneERKNS0_3MapINS0_6MapKeyENS0_11MapValueRefEE14const_iteratorES7_(ptr noundef nonnull align 8 dereferenceable(24) %0, ptr noundef nonnull align 8 dereferenceable(24) %1) #7 comdat {
  %3 = alloca ptr, align 8
  %4 = alloca ptr, align 8
  store ptr %0, ptr %3, align 8, !tbaa !70
  store ptr %1, ptr %4, align 8, !tbaa !70
  %5 = load ptr, ptr %3, align 8, !tbaa !70
  %6 = load ptr, ptr %4, align 8, !tbaa !70
  %7 = call noundef zeroext i1 @_ZN6google8protobufeqERKNS0_3MapINS0_6MapKeyENS0_11MapValueRefEE14const_iteratorES7_(ptr noundef nonnull align 8 dereferenceable(24) %5, ptr noundef nonnull align 8 dereferenceable(24) %6)
  %8 = xor i1 %7, true
  ret i1 %8
}

; Function Attrs: mustprogress uwtable
define linkonce_odr hidden void @_ZNK6google8protobuf3MapINS0_6MapKeyENS0_11MapValueRefEE3endEv(ptr dead_on_unwind noalias writable sret(%"class.google::protobuf::Map<google::protobuf::MapKey, google::protobuf::MapValueRef>::const_iterator") align 8 %0, ptr noundef nonnull align 8 dereferenceable(48) %1) #7 comdat align 2 {
  %3 = alloca ptr, align 8
  %4 = alloca %"class.google::protobuf::Map<google::protobuf::MapKey, google::protobuf::MapValueRef>::InnerMap::iterator_base.0", align 8
  store ptr %1, ptr %3, align 8, !tbaa !55
  %5 = load ptr, ptr %3, align 8
  call void @llvm.lifetime.start.p0(i64 24, ptr %4) #3
  %6 = getelementptr inbounds nuw %"class.google::protobuf::Map", ptr %5, i32 0, i32 0
  call void @_ZNK6google8protobuf3MapINS0_6MapKeyENS0_11MapValueRefEE8InnerMap3endEv(ptr dead_on_unwind writable sret(%"class.google::protobuf::Map<google::protobuf::MapKey, google::protobuf::MapValueRef>::InnerMap::iterator_base.0") align 8 %4, ptr noundef nonnull align 8 dereferenceable(48) %6)
  call void @_ZN6google8protobuf3MapINS0_6MapKeyENS0_11MapValueRefEE14const_iteratorC2ERKNS4_8InnerMap13iterator_baseIKNS0_7MapPairIS2_S3_EEEE(ptr noundef nonnull align 8 dereferenceable(24) %0, ptr noundef nonnull align 8 dereferenceable(24) %4)
  call void @llvm.lifetime.end.p0(i64 24, ptr %4) #3
  ret void
}

; Function Attrs: mustprogress uwtable
define linkonce_odr hidden void @_ZNK6google8protobuf3MapINS0_6MapKeyENS0_11MapValueRefEE4findIS2_EENS4_14const_iteratorERKS2_(ptr dead_on_unwind noalias writable sret(%"class.google::protobuf::Map<google::protobuf::MapKey, google::protobuf::MapValueRef>::const_iterator") align 8 %0, ptr noundef nonnull align 8 dereferenceable(48) %1, ptr noundef nonnull align 8 dereferenceable(36) %2) #7 comdat align 2 {
  %4 = alloca ptr, align 8
  %5 = alloca ptr, align 8
  %6 = alloca %"class.google::protobuf::Map<google::protobuf::MapKey, google::protobuf::MapValueRef>::InnerMap::iterator_base.0", align 8
  store ptr %1, ptr %4, align 8, !tbaa !55
  store ptr %2, ptr %5, align 8, !tbaa !68
  %7 = load ptr, ptr %4, align 8
  call void @llvm.lifetime.start.p0(i64 24, ptr %6) #3
  %8 = getelementptr inbounds nuw %"class.google::protobuf::Map", ptr %7, i32 0, i32 0
  %9 = load ptr, ptr %5, align 8, !tbaa !68
  call void @_ZNK6google8protobuf3MapINS0_6MapKeyENS0_11MapValueRefEE8InnerMap4findIS2_EENS5_13iterator_baseIKNS0_7MapPairIS2_S3_EEEERKT_(ptr dead_on_unwind writable sret(%"class.google::protobuf::Map<google::protobuf::MapKey, google::protobuf::MapValueRef>::InnerMap::iterator_base.0") align 8 %6, ptr noundef nonnull align 8 dereferenceable(48) %8, ptr noundef nonnull align 8 dereferenceable(36) %9)
  call void @_ZN6google8protobuf3MapINS0_6MapKeyENS0_11MapValueRefEE14const_iteratorC2ERKNS4_8InnerMap13iterator_baseIKNS0_7MapPairIS2_S3_EEEE(ptr noundef nonnull align 8 dereferenceable(24) %0, ptr noundef nonnull align 8 dereferenceable(24) %6)
  call void @llvm.lifetime.end.p0(i64 24, ptr %6) #3
  ret void
}

; Function Attrs: mustprogress uwtable
define hidden noundef zeroext i1 @_ZNK6google8protobuf8internal15DynamicMapField14ContainsMapKeyERKNS0_6MapKeyE(ptr noundef nonnull align 8 dereferenceable(128) %0, ptr noundef nonnull align 8 dereferenceable(36) %1) unnamed_addr #7 align 2 {
  %3 = alloca ptr, align 8
  %4 = alloca ptr, align 8
  %5 = alloca ptr, align 8
  %6 = alloca %"class.google::protobuf::Map<google::protobuf::MapKey, google::protobuf::MapValueRef>::const_iterator", align 8
  %7 = alloca %"class.google::protobuf::Map<google::protobuf::MapKey, google::protobuf::MapValueRef>::const_iterator", align 8
  store ptr %0, ptr %3, align 8, !tbaa !43
  store ptr %1, ptr %4, align 8, !tbaa !68
  %8 = load ptr, ptr %3, align 8
  call void @llvm.lifetime.start.p0(i64 8, ptr %5) #3
  %9 = load ptr, ptr %8, align 8, !tbaa !18
  %10 = getelementptr inbounds ptr, ptr %9, i64 21
  %11 = load ptr, ptr %10, align 8
  %12 = call noundef nonnull align 8 dereferenceable(48) ptr %11(ptr noundef nonnull align 8 dereferenceable(128) %8)
  store ptr %12, ptr %5, align 8, !tbaa !55
  call void @llvm.lifetime.start.p0(i64 24, ptr %6) #3
  %13 = load ptr, ptr %5, align 8, !tbaa !55
  %14 = load ptr, ptr %4, align 8, !tbaa !68
  call void @_ZNK6google8protobuf3MapINS0_6MapKeyENS0_11MapValueRefEE4findIS2_EENS4_14const_iteratorERKS2_(ptr dead_on_unwind writable sret(%"class.google::protobuf::Map<google::protobuf::MapKey, google::protobuf::MapValueRef>::const_iterator") align 8 %6, ptr noundef nonnull align 8 dereferenceable(48) %13, ptr noundef nonnull align 8 dereferenceable(36) %14)
  call void @llvm.lifetime.start.p0(i64 24, ptr %7) #3
  %15 = load ptr, ptr %5, align 8, !tbaa !55
  call void @_ZNK6google8protobuf3MapINS0_6MapKeyENS0_11MapValueRefEE3endEv(ptr dead_on_unwind writable sret(%"class.google::protobuf::Map<google::protobuf::MapKey, google::protobuf::MapValueRef>::const_iterator") align 8 %7, ptr noundef nonnull align 8 dereferenceable(48) %15)
  %16 = call noundef zeroext i1 @_ZN6google8protobufneERKNS0_3MapINS0_6MapKeyENS0_11MapValueRefEE14const_iteratorES7_(ptr noundef nonnull align 8 dereferenceable(24) %6, ptr noundef nonnull align 8 dereferenceable(24) %7)
  call void @llvm.lifetime.end.p0(i64 24, ptr %7) #3
  call void @llvm.lifetime.end.p0(i64 24, ptr %6) #3
  call void @llvm.lifetime.end.p0(i64 8, ptr %5) #3
  ret i1 %16
}