; Function Attrs: mustprogress uwtable
define hidden noundef zeroext i1 @_ZNK6google8protobuf8internal15DynamicMapField14ContainsMapKeyERKNS0_6MapKeyE(ptr noundef nonnull align 8 dereferenceable(128) %0, ptr noundef nonnull align 8 dereferenceable(36) %1) unnamed_addr #6 align 2 {
  %3 = alloca %"struct.std::pair.27", align 8
  %4 = load ptr, ptr %0, align 8, !tbaa !15
  %5 = getelementptr inbounds nuw i8, ptr %4, i64 168
  %6 = load ptr, ptr %5, align 8
  %7 = tail call noundef nonnull align 8 dereferenceable(48) ptr %6(ptr noundef nonnull align 8 dereferenceable(128) %0)
  call void @llvm.lifetime.start.p0(i64 32, ptr nonnull %3) #29, !noalias !104
  call void @_ZNK6google8protobuf3MapINS0_6MapKeyENS0_11MapValueRefEE8InnerMap10FindHelperIS2_EESt4pairINS5_13iterator_baseIKNS0_7MapPairIS2_S3_EEEEmERKT_PSt17_Rb_tree_iteratorIS7_IKSt17reference_wrapperIKS2_EPvEE(ptr dead_on_unwind nonnull writable sret(%"struct.std::pair.27") align 8 %3, ptr noundef nonnull align 8 dereferenceable(48) %7, ptr noundef nonnull align 8 dereferenceable(36) %1, ptr noundef null), !noalias !104
  %.sroa.04.0.copyload = load ptr, ptr %3, align 8
  call void @llvm.lifetime.end.p0(i64 32, ptr nonnull %3) #29, !noalias !104
  %8 = icmp ne ptr %.sroa.04.0.copyload, null
  ret i1 %8
}